target datalayout = "e-m:e-p270:32:32-p271:32:32-p272:64:64-i64:64-i128:128-f80:128-n8:16:32:64-S128"
target triple = "x86_64-pc-linux-gnu"

%struct._zend_gc_globals = type { ptr, i8, i8, i8, i8, i32, i32, i32, i32, i32, i32, i32, i64, i64, i64, i64 }
%struct.timespec = type { i64, i64 }
%struct._gc_root_buffer = type { ptr }

@gc_globals = internal global %struct._zend_gc_globals zeroinitializer, align 8

; Function Attrs: nounwind uwtable
define hidden void @gc_reset() #0 {
  %1 = alloca i64, align 8
  %2 = alloca %struct.timespec, align 8
  %3 = load ptr, ptr @gc_globals, align 8
  %4 = icmp ne ptr %3, null
  br i1 %4, label %5, label %6

5:                                                ; preds = %0
  store i8 0, ptr getelementptr inbounds (%struct._zend_gc_globals, ptr @gc_globals, i32 0, i32 2), align 1
  store i8 0, ptr getelementptr inbounds (%struct._zend_gc_globals, ptr @gc_globals, i32 0, i32 3), align 2
  store i8 0, ptr getelementptr inbounds (%struct._zend_gc_globals, ptr @gc_globals, i32 0, i32 4), align 1
  store i32 0, ptr getelementptr inbounds (%struct._zend_gc_globals, ptr @gc_globals, i32 0, i32 5), align 4
  store i32 1, ptr getelementptr inbounds (%struct._zend_gc_globals, ptr @gc_globals, i32 0, i32 6), align 8
  store i32 0, ptr getelementptr inbounds (%struct._zend_gc_globals, ptr @gc_globals, i32 0, i32 9), align 4
  store i32 0, ptr getelementptr inbounds (%struct._zend_gc_globals, ptr @gc_globals, i32 0, i32 10), align 8
  store i32 0, ptr getelementptr inbounds (%struct._zend_gc_globals, ptr @gc_globals, i32 0, i32 11), align 4
  store i64 0, ptr getelementptr inbounds (%struct._zend_gc_globals, ptr @gc_globals, i32 0, i32 13), align 8
  store i64 0, ptr getelementptr inbounds (%struct._zend_gc_globals, ptr @gc_globals, i32 0, i32 14), align 8
  store i64 0, ptr getelementptr inbounds (%struct._zend_gc_globals, ptr @gc_globals, i32 0, i32 15), align 8
  br label %6

6:                                                ; preds = %5, %0
  call void @llvm.memset.p0.i64(ptr align 8 %2, i8 0, i64 16, i1 false)
  %7 = call i32 @clock_gettime(i32 noundef 1, ptr noundef %2) #7
  %8 = icmp eq i32 0, %7
  br i1 %8, label %9, label %15

9:                                                ; preds = %6
  %10 = load i64, ptr %2, align 8
  %11 = mul i64 %10, 1000000000
  %12 = getelementptr inbounds %struct.timespec, ptr %2, i32 0, i32 1
  %13 = load i64, ptr %12, align 8
  %14 = add i64 %11, %13
  store i64 %14, ptr %1, align 8
  br label %16

15:                                               ; preds = %6
  store i64 0, ptr %1, align 8
  br label %16

16:                                               ; preds = %15, %9
  %17 = load i64, ptr %1, align 8
  store i64 %17, ptr getelementptr inbounds (%struct._zend_gc_globals, ptr @gc_globals, i32 0, i32 12), align 8
  ret void
}

; Function Attrs: nounwind uwtable
define zeroext i1 @gc_enable(i1 noundef zeroext %0) #0 {
  %2 = alloca i8, align 1
  %3 = alloca i8, align 1
  %4 = zext i1 %0 to i8
  store i8 %4, ptr %2, align 1
  %5 = load i8, ptr getelementptr inbounds (%struct._zend_gc_globals, ptr @gc_globals, i32 0, i32 1), align 8
  %6 = trunc i8 %5 to i1
  %7 = zext i1 %6 to i8
  store i8 %7, ptr %3, align 1
  %8 = load i8, ptr %2, align 1
  %9 = trunc i8 %8 to i1
  %10 = zext i1 %9 to i8
  store i8 %10, ptr getelementptr inbounds (%struct._zend_gc_globals, ptr @gc_globals, i32 0, i32 1), align 8
  %11 = load i8, ptr %2, align 1
  %12 = trunc i8 %11 to i1
  br i1 %12, label %13, label %24

13:                                               ; preds = %1
  %14 = load i8, ptr %3, align 1
  %15 = trunc i8 %14 to i1
  br i1 %15, label %24, label %16

16:                                               ; preds = %13
  %17 = load ptr, ptr @gc_globals, align 8
  %18 = icmp eq ptr %17, null
  br i1 %18, label %19, label %24

19:                                               ; preds = %16
  %20 = call noalias ptr @__zend_malloc(i64 noundef 131072) #8
  store ptr %20, ptr @gc_globals, align 8
  %21 = load ptr, ptr @gc_globals, align 8
  %22 = getelementptr inbounds %struct._gc_root_buffer, ptr %21, i64 0
  %23 = getelementptr inbounds %struct._gc_root_buffer, ptr %22, i32 0, i32 0
  store ptr null, ptr %23, align 8
  store i32 16384, ptr getelementptr inbounds (%struct._zend_gc_globals, ptr @gc_globals, i32 0, i32 8), align 8
  store i32 10001, ptr getelementptr inbounds (%struct._zend_gc_globals, ptr @gc_globals, i32 0, i32 7), align 4
  call void @gc_reset()
  br label %24

24:                                               ; preds = %19, %16, %13, %1
  %25 = load i8, ptr %3, align 1
  %26 = trunc i8 %25 to i1
  ret i1 %26
}