; Function Attrs: nounwind uwtable
define zeroext i1 @gc_enable(i1 noundef zeroext %0) local_unnamed_addr #2 {
  %2 = alloca %struct.timespec, align 8
  %3 = zext i1 %0 to i8
  %4 = load i8, ptr getelementptr inbounds (%struct._zend_gc_globals, ptr @gc_globals, i64 0, i32 1), align 8
  %5 = and i8 %4, 1
  %6 = icmp ne i8 %5, 0
  store i8 %3, ptr getelementptr inbounds (%struct._zend_gc_globals, ptr @gc_globals, i64 0, i32 1), align 8
  br i1 %0, label %7, label %20

7:                                                ; preds = %1
  %8 = load ptr, ptr @gc_globals, align 8
  %9 = icmp ne ptr %8, null
  %or.cond.not = select i1 %6, i1 true, i1 %9
  br i1 %or.cond.not, label %20, label %10

10:                                               ; preds = %7
  %11 = tail call noalias dereferenceable_or_null(131072) ptr @__zend_malloc(i64 noundef 131072) #16
  store ptr %11, ptr @gc_globals, align 8
  store ptr null, ptr %11, align 8
  call void @llvm.lifetime.start.p0(i64 16, ptr nonnull %2)
  tail call void @llvm.memset.p0.i64(ptr noundef nonnull align 1 dereferenceable(7) getelementptr inbounds (%struct._zend_gc_globals, ptr @gc_globals, i64 0, i32 2), i8 0, i64 7, i1 false)
  store <4 x i32> <i32 1, i32 10001, i32 16384, i32 0>, ptr getelementptr inbounds (%struct._zend_gc_globals, ptr @gc_globals, i64 0, i32 6), align 8
  store i32 0, ptr getelementptr inbounds (%struct._zend_gc_globals, ptr @gc_globals, i64 0, i32 10), align 8
  store i32 0, ptr getelementptr inbounds (%struct._zend_gc_globals, ptr @gc_globals, i64 0, i32 11), align 4
  tail call void @llvm.memset.p0.i64(ptr noundef nonnull align 8 dereferenceable(24) getelementptr inbounds (%struct._zend_gc_globals, ptr @gc_globals, i64 0, i32 13), i8 0, i64 24, i1 false)
  call void @llvm.memset.p0.i64(ptr noundef nonnull align 8 dereferenceable(16) %2, i8 0, i64 16, i1 false)
  %12 = call i32 @clock_gettime(i32 noundef 1, ptr noundef nonnull %2) #15
  %13 = icmp eq i32 %12, 0
  br i1 %13, label %14, label %gc_reset.exit

14:                                               ; preds = %10
  %15 = load i64, ptr %2, align 8
  %16 = mul i64 %15, 1000000000
  %17 = getelementptr inbounds i8, ptr %2, i64 8
  %18 = load i64, ptr %17, align 8
  %19 = add i64 %16, %18
  br label %gc_reset.exit

gc_reset.exit:                                    ; preds = %10, %14
  %.0.i = phi i64 [ %19, %14 ], [ 0, %10 ]
  store i64 %.0.i, ptr getelementptr inbounds (%struct._zend_gc_globals, ptr @gc_globals, i64 0, i32 12), align 8
  call void @llvm.lifetime.end.p0(i64 16, ptr nonnull %2)
  br label %20

20:                                               ; preds = %gc_reset.exit, %7, %1
  ret i1 %6
}